---
triple:          'arm64-apple-darwin'
binary-path:     '/Users/ray/github/code_problems/leetcode/105.Construct_Binary_Tree_from_Preorder_and_Inorder_Traversal/cpp/main'
relocations:
  - { offset: 0x19, size: 0x8, addend: 0x0, symName: __ZSt23__is_constant_evaluatedv, symObjAddr: 0x0, symBinAddr: 0x100001CA0, symSize: 0x8 }
  - { offset: 0x9E1D, size: 0x8, addend: 0x0, symName: __ZNSt10_Head_baseILm0ERKiLb0EE7_M_headERS2_, symObjAddr: 0x3458, symBinAddr: 0x1000050F8, symSize: 0x18 }
  - { offset: 0x9E44, size: 0x8, addend: 0x0, symName: __ZNSt11_Tuple_implILm0EJRKiEE7_M_headERS2_, symObjAddr: 0x343C, symBinAddr: 0x1000050DC, symSize: 0x1C }
  - { offset: 0x9E6C, size: 0x8, addend: 0x0, symName: __ZSt12__get_helperILm0ERKiJEERT0_RSt11_Tuple_implIXT_EJS2_DpT1_EE, symObjAddr: 0x3420, symBinAddr: 0x1000050C0, symSize: 0x1C }
  - { offset: 0x9EB2, size: 0x8, addend: 0x0, symName: __ZSt7forwardIRKiEOT_RNSt16remove_referenceIS2_E4typeE, symObjAddr: 0x340C, symBinAddr: 0x1000050AC, symSize: 0x14 }
  - { offset: 0x9EE2, size: 0x8, addend: 0x0, symName: __ZSt3getILm0EJRKiEERNSt13tuple_elementIXT_ESt5tupleIJDpT0_EEE4typeERS6_, symObjAddr: 0x33F0, symBinAddr: 0x100005090, symSize: 0x1C }
  - { offset: 0x9F86, size: 0x8, addend: 0x0, symName: __ZNSt4pairIKiiEC1IJRS0_EJLm0EEJEJEEERSt5tupleIJDpT_EERS4_IJDpT1_EESt12_Index_tupleIJXspT0_EEESD_IJXspT2_EEE, symObjAddr: 0x33A8, symBinAddr: 0x100005048, symSize: 0x48 }
  - { offset: 0x9FED, size: 0x8, addend: 0x0, symName: __ZNSt11__copy_moveILb0ELb0ESt26random_access_iterator_tagE12__assign_oneIiKiEEvPT_PT0_, symObjAddr: 0x3380, symBinAddr: 0x100005020, symSize: 0x28 }
  - { offset: 0xA082, size: 0x8, addend: 0x0, symName: __ZNSt4pairIKiiEC1IJRS0_EJEEESt21piecewise_construct_tSt5tupleIJDpT_EES5_IJDpT0_EE, symObjAddr: 0x3344, symBinAddr: 0x100004FE4, symSize: 0x3C }
  - { offset: 0xA0F4, size: 0x8, addend: 0x0, symName: __ZNSt11_Tuple_implILm0EJRKiEEC2EOS2_, symObjAddr: 0x331C, symBinAddr: 0x100004FBC, symSize: 0x28 }
  - { offset: 0xA130, size: 0x8, addend: 0x0, symName: __ZNSt11__copy_moveILb0ELb1ESt26random_access_iterator_tagE8__copy_mIKiiEEPT0_PT_S7_S5_, symObjAddr: 0x328C, symBinAddr: 0x100004F2C, symSize: 0x90 }
  - { offset: 0xA1A2, size: 0x8, addend: 0x0, symName: __ZNK9__gnu_cxx16__aligned_membufISt4pairIKiiEE7_M_addrEv, symObjAddr: 0x3278, symBinAddr: 0x100004F18, symSize: 0x14 }
  - { offset: 0xA245, size: 0x8, addend: 0x0, symName: __ZNSt5tupleIJRKiEEC1EOS2_, symObjAddr: 0x3250, symBinAddr: 0x100004EF0, symSize: 0x28 }
  - { offset: 0xA271, size: 0x8, addend: 0x0, symName: __ZNSt15__new_allocatorISt13_Rb_tree_nodeISt4pairIKiiEEE8allocateEmPKv, symObjAddr: 0x31C0, symBinAddr: 0x100004E60, symSize: 0x90 }
  - { offset: 0xA2DB, size: 0x8, addend: 0x0, symName: __ZSt14__copy_move_a2ILb0EPKiPiET1_T0_S4_S3_, symObjAddr: 0x3194, symBinAddr: 0x100004E34, symSize: 0x2C }
  - { offset: 0xA36B, size: 0x8, addend: 0x0, symName: __ZNSt15__new_allocatorISt13_Rb_tree_nodeISt4pairIKiiEEE10deallocateEPS4_m, symObjAddr: 0x3158, symBinAddr: 0x100004DF8, symSize: 0x3C }
  - { offset: 0xA3DA, size: 0x8, addend: 0x0, symName: __ZNK9__gnu_cxx16__aligned_membufISt4pairIKiiEE6_M_ptrEv, symObjAddr: 0x313C, symBinAddr: 0x100004DDC, symSize: 0x1C }
  - { offset: 0xA40A, size: 0x8, addend: 0x0, symName: __ZSt7forwardIRPSt13_Rb_tree_nodeISt4pairIKiiEEEOT_RNSt16remove_referenceIS7_E4typeE, symObjAddr: 0x3128, symBinAddr: 0x100004DC8, symSize: 0x14 }
  - { offset: 0xA4AF, size: 0x8, addend: 0x0, symName: __ZSt12__niter_wrapIPiET_RKS1_S1_, symObjAddr: 0x3110, symBinAddr: 0x100004DB0, symSize: 0x18 }
  - { offset: 0xA4E8, size: 0x8, addend: 0x0, symName: __ZSt14__copy_move_a1ILb0EPKiPiET1_T0_S4_S3_, symObjAddr: 0x30E4, symBinAddr: 0x100004D84, symSize: 0x2C }
  - { offset: 0xA54C, size: 0x8, addend: 0x0, symName: __ZSt12__niter_baseIPiET_S1_, symObjAddr: 0x30D0, symBinAddr: 0x100004D70, symSize: 0x14 }
  - { offset: 0xA57D, size: 0x8, addend: 0x0, symName: __ZSt12__niter_baseIPKiET_S2_, symObjAddr: 0x30BC, symBinAddr: 0x100004D5C, symSize: 0x14 }
  - { offset: 0xA5AE, size: 0x8, addend: 0x0, symName: __ZNSt20__uninitialized_copyILb1EE13__uninit_copyIPKiPiEET0_T_S6_S5_, symObjAddr: 0x3090, symBinAddr: 0x100004D30, symSize: 0x2C }
  - { offset: 0xA609, size: 0x8, addend: 0x0, symName: __ZNSt15__new_allocatorIiE8allocateEmPKv, symObjAddr: 0x3014, symBinAddr: 0x100004CB4, symSize: 0x7C }
  - { offset: 0xA679, size: 0x8, addend: 0x0, symName: __ZSt3minImERKT_S2_S2_, symObjAddr: 0x2FDC, symBinAddr: 0x100004C7C, symSize: 0x38 }
  - { offset: 0xA6D0, size: 0x8, addend: 0x0, symName: __ZNSt15__new_allocatorIiE10deallocateEPim, symObjAddr: 0x2FAC, symBinAddr: 0x100004C4C, symSize: 0x30 }
  - { offset: 0xA787, size: 0x8, addend: 0x0, symName: __ZNSt8_Rb_treeIiSt4pairIKiiESt10_Select1stIS2_ESt4lessIiESaIS2_EE21_M_get_Node_allocatorEv, symObjAddr: 0x2F98, symBinAddr: 0x100004C38, symSize: 0x14 }
  - { offset: 0xA7AF, size: 0x8, addend: 0x0, symName: __ZNKSt10_Select1stISt4pairIKiiEEclERKS2_, symObjAddr: 0x2F80, symBinAddr: 0x100004C20, symSize: 0x18 }
  - { offset: 0xA7E7, size: 0x8, addend: 0x0, symName: __ZNKSt13_Rb_tree_nodeISt4pairIKiiEE9_M_valptrEv, symObjAddr: 0x2F60, symBinAddr: 0x100004C00, symSize: 0x20 }
  - { offset: 0xA811, size: 0x8, addend: 0x0, symName: __ZSt7forwardIRPSt18_Rb_tree_node_baseEOT_RNSt16remove_referenceIS3_E4typeE, symObjAddr: 0x2F4C, symBinAddr: 0x100004BEC, symSize: 0x14 }
  - { offset: 0xA889, size: 0x8, addend: 0x0, symName: __ZNSt4pairIPSt18_Rb_tree_node_baseS1_EC1IRPSt13_Rb_tree_nodeIS_IKiiEERS1_Lb1EEEOT_OT0_, symObjAddr: 0x2F04, symBinAddr: 0x100004BA4, symSize: 0x48 }
  - { offset: 0xA8CF, size: 0x8, addend: 0x0, symName: __ZNSt8_Rb_treeIiSt4pairIKiiESt10_Select1stIS2_ESt4lessIiESaIS2_EE5beginEv, symObjAddr: 0x2EDC, symBinAddr: 0x100004B7C, symSize: 0x28 }
  - { offset: 0xA8F7, size: 0x8, addend: 0x0, symName: __ZNSt8_Rb_treeIiSt4pairIKiiESt10_Select1stIS2_ESt4lessIiESaIS2_EE17_M_construct_nodeIJRKSt21piecewise_construct_tSt5tupleIJRS1_EESD_IJEEEEEvPSt13_Rb_tree_nodeIS2_EDpOT_, symObjAddr: 0x2D60, symBinAddr: 0x100004A00, symSize: 0x17C }
  - { offset: 0xA9E5, size: 0x8, addend: 0x0, symName: __ZNSt8_Rb_treeIiSt4pairIKiiESt10_Select1stIS2_ESt4lessIiESaIS2_EE11_M_get_nodeEv, symObjAddr: 0x2D24, symBinAddr: 0x1000049C4, symSize: 0x3C }
  - { offset: 0xAA3B, size: 0x8, addend: 0x0, symName: __ZN9__gnu_cxx16__aligned_membufISt4pairIKiiEE7_M_addrEv, symObjAddr: 0x2D10, symBinAddr: 0x1000049B0, symSize: 0x14 }
  - { offset: 0xAA65, size: 0x8, addend: 0x0, symName: __ZSt9__advanceIPKilEvRT_T0_St26random_access_iterator_tag, symObjAddr: 0x2CD8, symBinAddr: 0x100004978, symSize: 0x38 }
  - { offset: 0xAAB5, size: 0x8, addend: 0x0, symName: __ZSt13__copy_move_aILb0EPKiPiET1_T0_S4_S3_, symObjAddr: 0x2C78, symBinAddr: 0x100004918, symSize: 0x60 }
  - { offset: 0xAB19, size: 0x8, addend: 0x0, symName: __ZSt12__miter_baseIPKiET_S2_, symObjAddr: 0x2C64, symBinAddr: 0x100004904, symSize: 0x14 }
  - { offset: 0xAB4A, size: 0x8, addend: 0x0, symName: __ZNSt12_Destroy_auxILb1EE9__destroyIPiEEvT_S3_, symObjAddr: 0x2C4C, symBinAddr: 0x1000048EC, symSize: 0x18 }
  - { offset: 0xAB7B, size: 0x8, addend: 0x0, symName: __ZSt18uninitialized_copyIPKiPiET0_T_S4_S3_, symObjAddr: 0x2C10, symBinAddr: 0x1000048B0, symSize: 0x3C }
  - { offset: 0xAC11, size: 0x8, addend: 0x0, symName: __ZNSt6vectorIiSaIiEE11_S_max_sizeERKS0_, symObjAddr: 0x2BBC, symBinAddr: 0x10000485C, symSize: 0x54 }
  - { offset: 0xAD08, size: 0x8, addend: 0x0, symName: __ZNSt12_Vector_baseIiSaIiEE17_Vector_impl_dataC2Ev, symObjAddr: 0x2B90, symBinAddr: 0x100004830, symSize: 0x2C }
  - { offset: 0xAD4C, size: 0x8, addend: 0x0, symName: __ZNSt8_Rb_treeIiSt4pairIKiiESt10_Select1stIS2_ESt4lessIiESaIS2_EE11_M_put_nodeEPSt13_Rb_tree_nodeIS2_E, symObjAddr: 0x2B44, symBinAddr: 0x1000047E4, symSize: 0x4C }
  - { offset: 0xADB6, size: 0x8, addend: 0x0, symName: __ZNSt8_Rb_treeIiSt4pairIKiiESt10_Select1stIS2_ESt4lessIiESaIS2_EE15_M_destroy_nodeEPSt13_Rb_tree_nodeIS2_E, symObjAddr: 0x2AEC, symBinAddr: 0x10000478C, symSize: 0x58 }
  - { offset: 0xAE42, size: 0x8, addend: 0x0, symName: __ZNSt8_Rb_treeIiSt4pairIKiiESt10_Select1stIS2_ESt4lessIiESaIS2_EE14_M_insert_nodeEPSt18_Rb_tree_node_baseSA_PSt13_Rb_tree_nodeIS2_E, symObjAddr: 0x2A1C, symBinAddr: 0x1000046BC, symSize: 0xD0 }
  - { offset: 0xAEA6, size: 0x8, addend: 0x0, symName: __ZNSt8_Rb_treeIiSt4pairIKiiESt10_Select1stIS2_ESt4lessIiESaIS2_EE6_S_keyEPKSt13_Rb_tree_nodeIS2_E, symObjAddr: 0x29F4, symBinAddr: 0x100004694, symSize: 0x28 }
  - { offset: 0xAED2, size: 0x8, addend: 0x0, symName: __ZNSt17_Rb_tree_iteratorISt4pairIKiiEEppEv, symObjAddr: 0x29C4, symBinAddr: 0x100004664, symSize: 0x30 }
  - { offset: 0xAEFA, size: 0x8, addend: 0x0, symName: __ZNSt17_Rb_tree_iteratorISt4pairIKiiEEmmEv, symObjAddr: 0x2994, symBinAddr: 0x100004634, symSize: 0x30 }
  - { offset: 0xAF66, size: 0x8, addend: 0x0, symName: __ZNSt4pairIPSt18_Rb_tree_node_baseS1_EC1IRS1_S4_Lb1EEEOT_OT0_, symObjAddr: 0x294C, symBinAddr: 0x1000045EC, symSize: 0x48 }
  - { offset: 0xAFAC, size: 0x8, addend: 0x0, symName: __ZNSt8_Rb_treeIiSt4pairIKiiESt10_Select1stIS2_ESt4lessIiESaIS2_EE11_M_leftmostEv, symObjAddr: 0x2934, symBinAddr: 0x1000045D4, symSize: 0x18 }
  - { offset: 0xAFD4, size: 0x8, addend: 0x0, symName: __ZNSt8_Rb_treeIiSt4pairIKiiESt10_Select1stIS2_ESt4lessIiESaIS2_EE24_M_get_insert_unique_posERS1_, symObjAddr: 0x27DC, symBinAddr: 0x10000447C, symSize: 0x158 }
  - { offset: 0xB095, size: 0x8, addend: 0x0, symName: __ZNSt4pairIPSt18_Rb_tree_node_baseS1_EC1IS1_S1_Lb1EEERKS1_S5_, symObjAddr: 0x27A0, symBinAddr: 0x100004440, symSize: 0x3C }
  - { offset: 0xB0D7, size: 0x8, addend: 0x0, symName: __ZNSt8_Rb_treeIiSt4pairIKiiESt10_Select1stIS2_ESt4lessIiESaIS2_EE6_S_keyEPKSt18_Rb_tree_node_base, symObjAddr: 0x2784, symBinAddr: 0x100004424, symSize: 0x1C }
  - { offset: 0xB103, size: 0x8, addend: 0x0, symName: __ZNSt8_Rb_treeIiSt4pairIKiiESt10_Select1stIS2_ESt4lessIiESaIS2_EE12_M_rightmostEv, symObjAddr: 0x276C, symBinAddr: 0x10000440C, symSize: 0x18 }
  - { offset: 0xB12B, size: 0x8, addend: 0x0, symName: __ZNKSt8_Rb_treeIiSt4pairIKiiESt10_Select1stIS2_ESt4lessIiESaIS2_EE4sizeEv, symObjAddr: 0x2754, symBinAddr: 0x1000043F4, symSize: 0x18 }
  - { offset: 0xB153, size: 0x8, addend: 0x0, symName: __ZNKSt23_Rb_tree_const_iteratorISt4pairIKiiEE13_M_const_castEv, symObjAddr: 0x272C, symBinAddr: 0x1000043CC, symSize: 0x28 }
  - { offset: 0xB17B, size: 0x8, addend: 0x0, symName: __ZNSt8_Rb_treeIiSt4pairIKiiESt10_Select1stIS2_ESt4lessIiESaIS2_EE14_M_create_nodeIJRKSt21piecewise_construct_tSt5tupleIJRS1_EESD_IJEEEEEPSt13_Rb_tree_nodeIS2_EDpOT_, symObjAddr: 0x26BC, symBinAddr: 0x10000435C, symSize: 0x70 }
  - { offset: 0xB20A, size: 0x8, addend: 0x0, symName: __ZNSt10_Head_baseILm0ERKiLb0EEC2ES1_, symObjAddr: 0x2698, symBinAddr: 0x100004338, symSize: 0x24 }
  - { offset: 0xB236, size: 0x8, addend: 0x0, symName: __ZN9__gnu_cxx16__aligned_membufISt4pairIKiiEE6_M_ptrEv, symObjAddr: 0x267C, symBinAddr: 0x10000431C, symSize: 0x1C }
  - { offset: 0xB25E, size: 0x8, addend: 0x0, symName: __ZNSt8_Rb_treeIiSt4pairIKiiESt10_Select1stIS2_ESt4lessIiESaIS2_EE14_M_lower_boundEPSt13_Rb_tree_nodeIS2_EPSt18_Rb_tree_node_baseRS1_, symObjAddr: 0x25E0, symBinAddr: 0x100004280, symSize: 0x9C }
  - { offset: 0xB2B6, size: 0x8, addend: 0x0, symName: __ZNSt8_Rb_treeIiSt4pairIKiiESt10_Select1stIS2_ESt4lessIiESaIS2_EE6_M_endEv, symObjAddr: 0x25C8, symBinAddr: 0x100004268, symSize: 0x18 }
  - { offset: 0xB359, size: 0x8, addend: 0x0, symName: __ZSt4copyIPKiPiET0_T_S4_S3_, symObjAddr: 0x2580, symBinAddr: 0x100004220, symSize: 0x48 }
  - { offset: 0xB3B7, size: 0x8, addend: 0x0, symName: __ZNSt6vectorIiSaIiEE15_M_erase_at_endEPi, symObjAddr: 0x24F8, symBinAddr: 0x100004198, symSize: 0x88 }
  - { offset: 0xB443, size: 0x8, addend: 0x0, symName: __ZNSt6vectorIiSaIiEE20_M_allocate_and_copyIPKiEEPimT_S6_, symObjAddr: 0x2474, symBinAddr: 0x100004114, symSize: 0x84 }
  - { offset: 0xB4B4, size: 0x8, addend: 0x0, symName: __ZNKSt6vectorIiSaIiEE8capacityEv, symObjAddr: 0x244C, symBinAddr: 0x1000040EC, symSize: 0x28 }
  - { offset: 0xB4D8, size: 0x8, addend: 0x0, symName: __ZSt8_DestroyIPiEvT_S1_, symObjAddr: 0x2424, symBinAddr: 0x1000040C4, symSize: 0x28 }
  - { offset: 0xB517, size: 0x8, addend: 0x0, symName: __ZSt22__uninitialized_copy_aIPKiPiiET0_T_S4_S3_RSaIT1_E, symObjAddr: 0x23F4, symBinAddr: 0x100004094, symSize: 0x30 }
  - { offset: 0xB586, size: 0x8, addend: 0x0, symName: __ZNSt12_Vector_baseIiSaIiEE11_M_allocateEm, symObjAddr: 0x23A4, symBinAddr: 0x100004044, symSize: 0x50 }
  - { offset: 0xB5E4, size: 0x8, addend: 0x0, symName: __ZNSt6vectorIiSaIiEE17_S_check_init_lenEmRKS0_, symObjAddr: 0x2320, symBinAddr: 0x100003FC0, symSize: 0x84 }
  - { offset: 0xB6D3, size: 0x8, addend: 0x0, symName: __ZNKSt16initializer_listIiE4sizeEv, symObjAddr: 0x2308, symBinAddr: 0x100003FA8, symSize: 0x18 }
  - { offset: 0xB6FB, size: 0x8, addend: 0x0, symName: __ZNSt12_Vector_baseIiSaIiEE13_M_deallocateEPim, symObjAddr: 0x22B0, symBinAddr: 0x100003F50, symSize: 0x58 }
  - { offset: 0xB799, size: 0x8, addend: 0x0, symName: __ZNSt12_Vector_baseIiSaIiEE12_Vector_implC1ERKS0_, symObjAddr: 0x2264, symBinAddr: 0x100003F04, symSize: 0x4C }
  - { offset: 0xB817, size: 0x8, addend: 0x0, symName: __ZNKSt8_Rb_treeIiSt4pairIKiiESt10_Select1stIS2_ESt4lessIiESaIS2_EE9_M_mbeginEv, symObjAddr: 0x224C, symBinAddr: 0x100003EEC, symSize: 0x18 }
  - { offset: 0xB83F, size: 0x8, addend: 0x0, symName: __ZNSt8_Rb_treeIiSt4pairIKiiESt10_Select1stIS2_ESt4lessIiESaIS2_EE12_M_drop_nodeEPSt13_Rb_tree_nodeIS2_E, symObjAddr: 0x2218, symBinAddr: 0x100003EB8, symSize: 0x34 }
  - { offset: 0xB873, size: 0x8, addend: 0x0, symName: __ZNSt8_Rb_treeIiSt4pairIKiiESt10_Select1stIS2_ESt4lessIiESaIS2_EE7_S_leftEPSt18_Rb_tree_node_base, symObjAddr: 0x2200, symBinAddr: 0x100003EA0, symSize: 0x18 }
  - { offset: 0xB89B, size: 0x8, addend: 0x0, symName: __ZNSt8_Rb_treeIiSt4pairIKiiESt10_Select1stIS2_ESt4lessIiESaIS2_EE8_S_rightEPSt18_Rb_tree_node_base, symObjAddr: 0x21E8, symBinAddr: 0x100003E88, symSize: 0x18 }
  - { offset: 0xB900, size: 0x8, addend: 0x0, symName: __ZNSt17_Rb_tree_iteratorISt4pairIKiiEEC1EPSt18_Rb_tree_node_base, symObjAddr: 0x21C4, symBinAddr: 0x100003E64, symSize: 0x24 }
  - { offset: 0xB92C, size: 0x8, addend: 0x0, symName: __ZNSt8_Rb_treeIiSt4pairIKiiESt10_Select1stIS2_ESt4lessIiESaIS2_EE10_Auto_node9_M_insertES0_IPSt18_Rb_tree_node_baseSB_E, symObjAddr: 0x2178, symBinAddr: 0x100003E18, symSize: 0x4C }
  - { offset: 0xB974, size: 0x8, addend: 0x0, symName: __ZNKSt8_Rb_treeIiSt4pairIKiiESt10_Select1stIS2_ESt4lessIiESaIS2_EE10_Auto_node6_M_keyEv, symObjAddr: 0x2158, symBinAddr: 0x100003DF8, symSize: 0x20 }
  - { offset: 0xB99C, size: 0x8, addend: 0x0, symName: __ZNSt8_Rb_treeIiSt4pairIKiiESt10_Select1stIS2_ESt4lessIiESaIS2_EE29_M_get_insert_hint_unique_posESt23_Rb_tree_const_iteratorIS2_ERS1_, symObjAddr: 0x1E34, symBinAddr: 0x100003AD4, symSize: 0x324 }
  - { offset: 0xBA5F, size: 0x8, addend: 0x0, symName: __ZNSt8_Rb_treeIiSt4pairIKiiESt10_Select1stIS2_ESt4lessIiESaIS2_EE10_Auto_nodeD1Ev, symObjAddr: 0x1DF0, symBinAddr: 0x100003A90, symSize: 0x44 }
  - { offset: 0xBAD2, size: 0x8, addend: 0x0, symName: __ZNSt8_Rb_treeIiSt4pairIKiiESt10_Select1stIS2_ESt4lessIiESaIS2_EE10_Auto_nodeC1IJRKSt21piecewise_construct_tSt5tupleIJRS1_EESE_IJEEEEERS8_DpOT_, symObjAddr: 0x1D74, symBinAddr: 0x100003A14, symSize: 0x7C }
  - { offset: 0xBB33, size: 0x8, addend: 0x0, symName: __ZSt7forwardISt5tupleIJEEEOT_RNSt16remove_referenceIS2_E4typeE, symObjAddr: 0x1D60, symBinAddr: 0x100003A00, symSize: 0x14 }
  - { offset: 0xBB69, size: 0x8, addend: 0x0, symName: __ZSt7forwardISt5tupleIJRKiEEEOT_RNSt16remove_referenceIS4_E4typeE, symObjAddr: 0x1D4C, symBinAddr: 0x1000039EC, symSize: 0x14 }
  - { offset: 0xBB9F, size: 0x8, addend: 0x0, symName: __ZSt7forwardIRKSt21piecewise_construct_tEOT_RNSt16remove_referenceIS3_E4typeE, symObjAddr: 0x1D38, symBinAddr: 0x1000039D8, symSize: 0x14 }
  - { offset: 0xBBF8, size: 0x8, addend: 0x0, symName: __ZNSt11_Tuple_implILm0EJRKiEEC2ES1_, symObjAddr: 0x1D10, symBinAddr: 0x1000039B0, symSize: 0x28 }
  - { offset: 0xBC24, size: 0x8, addend: 0x0, symName: __ZNSt13_Rb_tree_nodeISt4pairIKiiEE9_M_valptrEv, symObjAddr: 0x1CF0, symBinAddr: 0x100003990, symSize: 0x20 }
  - { offset: 0xBC4C, size: 0x8, addend: 0x0, symName: __ZNKSt8_Rb_treeIiSt4pairIKiiESt10_Select1stIS2_ESt4lessIiESaIS2_EE8key_compEv, symObjAddr: 0x1CD8, symBinAddr: 0x100003978, symSize: 0x18 }
  - { offset: 0xBC74, size: 0x8, addend: 0x0, symName: __ZNSt8_Rb_treeIiSt4pairIKiiESt10_Select1stIS2_ESt4lessIiESaIS2_EE3endEv, symObjAddr: 0x1CB0, symBinAddr: 0x100003950, symSize: 0x28 }
  - { offset: 0xBC9C, size: 0x8, addend: 0x0, symName: __ZNSt8_Rb_treeIiSt4pairIKiiESt10_Select1stIS2_ESt4lessIiESaIS2_EE11lower_boundERS1_, symObjAddr: 0x1C68, symBinAddr: 0x100003908, symSize: 0x48 }
  - { offset: 0xBCFC, size: 0x8, addend: 0x0, symName: __ZNSt6vectorIiSaIiEE13_M_assign_auxIPKiEEvT_S5_St20forward_iterator_tag, symObjAddr: 0x1A18, symBinAddr: 0x1000036B8, symSize: 0x250 }
  - { offset: 0xBEFA, size: 0x8, addend: 0x0, symName: __ZNSt12_Vector_baseIiSaIiEE19_M_get_Tp_allocatorEv, symObjAddr: 0x1A04, symBinAddr: 0x1000036A4, symSize: 0x14 }
  - { offset: 0xBF22, size: 0x8, addend: 0x0, symName: __ZNSt6vectorIiSaIiEE19_M_range_initializeIPKiEEvT_S5_St20forward_iterator_tag, symObjAddr: 0x1920, symBinAddr: 0x1000035C0, symSize: 0xE4 }
  - { offset: 0xC02F, size: 0x8, addend: 0x0, symName: __ZNKSt16initializer_listIiE3endEv, symObjAddr: 0x18E8, symBinAddr: 0x100003588, symSize: 0x38 }
  - { offset: 0xC057, size: 0x8, addend: 0x0, symName: __ZNKSt16initializer_listIiE5beginEv, symObjAddr: 0x18D0, symBinAddr: 0x100003570, symSize: 0x18 }
  - { offset: 0xC0A0, size: 0x8, addend: 0x0, symName: __ZNSt12_Vector_baseIiSaIiEED2Ev, symObjAddr: 0x1880, symBinAddr: 0x100003520, symSize: 0x50 }
  - { offset: 0xC0E9, size: 0x8, addend: 0x0, symName: __ZNSt12_Vector_baseIiSaIiEEC2ERKS0_, symObjAddr: 0x1858, symBinAddr: 0x1000034F8, symSize: 0x28 }
  - { offset: 0xC13A, size: 0x8, addend: 0x0, symName: __ZNSt12_Vector_baseIiSaIiEE12_Vector_implD1Ev, symObjAddr: 0x182C, symBinAddr: 0x1000034CC, symSize: 0x2C }
  - { offset: 0xC1A0, size: 0x8, addend: 0x0, symName: __ZNSt15__new_allocatorIiED2Ev, symObjAddr: 0x1818, symBinAddr: 0x1000034B8, symSize: 0x14 }
  - { offset: 0xC1D8, size: 0x8, addend: 0x0, symName: __ZNSt8_Rb_treeIiSt4pairIKiiESt10_Select1stIS2_ESt4lessIiESaIS2_EE8_M_beginEv, symObjAddr: 0x17FC, symBinAddr: 0x10000349C, symSize: 0x1C }
  - { offset: 0xC200, size: 0x8, addend: 0x0, symName: __ZNSt8_Rb_treeIiSt4pairIKiiESt10_Select1stIS2_ESt4lessIiESaIS2_EE8_M_eraseEPSt13_Rb_tree_nodeIS2_E, symObjAddr: 0x1798, symBinAddr: 0x100003438, symSize: 0x64 }
  - { offset: 0xC27B, size: 0x8, addend: 0x0, symName: __ZNSt15__new_allocatorISt13_Rb_tree_nodeISt4pairIKiiEEED2Ev, symObjAddr: 0x1784, symBinAddr: 0x100003424, symSize: 0x14 }
  - { offset: 0xC2B7, size: 0x8, addend: 0x0, symName: __ZNSt20_Rb_tree_key_compareISt4lessIiEEC2Ev, symObjAddr: 0x1770, symBinAddr: 0x100003410, symSize: 0x14 }
  - { offset: 0xC2EF, size: 0x8, addend: 0x0, symName: __ZNSt8_Rb_treeIiSt4pairIKiiESt10_Select1stIS2_ESt4lessIiESaIS2_EE22_M_emplace_hint_uniqueIJRKSt21piecewise_construct_tSt5tupleIJRS1_EESD_IJEEEEESt17_Rb_tree_iteratorIS2_ESt23_Rb_tree_const_iteratorIS2_EDpOT_, symObjAddr: 0x1698, symBinAddr: 0x100003338, symSize: 0xD8 }
  - { offset: 0xC3A2, size: 0x8, addend: 0x0, symName: __ZNSt23_Rb_tree_const_iteratorISt4pairIKiiEEC1ERKSt17_Rb_tree_iteratorIS2_E, symObjAddr: 0x1670, symBinAddr: 0x100003310, symSize: 0x28 }
  - { offset: 0xC3FD, size: 0x8, addend: 0x0, symName: __ZNSt5tupleIJRKiEEC1ILb1ELb1EEES1_, symObjAddr: 0x1648, symBinAddr: 0x1000032E8, symSize: 0x28 }
  - { offset: 0xC433, size: 0x8, addend: 0x0, symName: __ZNKSt4lessIiEclERKiS2_, symObjAddr: 0x1614, symBinAddr: 0x1000032B4, symSize: 0x34 }
  - { offset: 0xC47B, size: 0x8, addend: 0x0, symName: __ZNKSt17_Rb_tree_iteratorISt4pairIKiiEEdeEv, symObjAddr: 0x15F4, symBinAddr: 0x100003294, symSize: 0x20 }
  - { offset: 0xC4A3, size: 0x8, addend: 0x0, symName: __ZNKSt3mapIiiSt4lessIiESaISt4pairIKiiEEE8key_compEv, symObjAddr: 0x15C8, symBinAddr: 0x100003268, symSize: 0x2C }
  - { offset: 0xC4CD, size: 0x8, addend: 0x0, symName: __ZSteqRKSt17_Rb_tree_iteratorISt4pairIKiiEES5_, symObjAddr: 0x1598, symBinAddr: 0x100003238, symSize: 0x30 }
  - { offset: 0xC509, size: 0x8, addend: 0x0, symName: __ZNSt3mapIiiSt4lessIiESaISt4pairIKiiEEE3endEv, symObjAddr: 0x157C, symBinAddr: 0x10000321C, symSize: 0x1C }
  - { offset: 0xC531, size: 0x8, addend: 0x0, symName: __ZNSt3mapIiiSt4lessIiESaISt4pairIKiiEEE11lower_boundERS3_, symObjAddr: 0x1558, symBinAddr: 0x1000031F8, symSize: 0x24 }
  - { offset: 0xC569, size: 0x8, addend: 0x0, symName: __ZNSt7__cxx1112basic_stringIcSt11char_traitsIcESaIcEE12_M_constructIPKcEEvT_S8_St20forward_iterator_tag, symObjAddr: 0x1478, symBinAddr: 0x100003118, symSize: 0xE0 }
  - { offset: 0xC667, size: 0x8, addend: 0x0, symName: __ZZNSt7__cxx1112basic_stringIcSt11char_traitsIcESaIcEE12_M_constructIPKcEEvT_S8_St20forward_iterator_tagEN6_GuardC1EPS4_, symObjAddr: 0x1420, symBinAddr: 0x1000030C0, symSize: 0x24 }
  - { offset: 0xC697, size: 0x8, addend: 0x0, symName: __ZZNSt7__cxx1112basic_stringIcSt11char_traitsIcESaIcEE12_M_constructIPKcEEvT_S8_St20forward_iterator_tagEN6_GuardD1Ev, symObjAddr: 0x1444, symBinAddr: 0x1000030E4, symSize: 0x34 }
  - { offset: 0xC79B, size: 0x8, addend: 0x0, symName: __ZNSt15__new_allocatorIcED2Ev, symObjAddr: 0x140C, symBinAddr: 0x1000030AC, symSize: 0x14 }
  - { offset: 0xC7CF, size: 0x8, addend: 0x0, symName: __ZN9__gnu_cxx11char_traitsIcE2eqERKcS3_, symObjAddr: 0x13DC, symBinAddr: 0x10000307C, symSize: 0x30 }
  - { offset: 0xC809, size: 0x8, addend: 0x0, symName: __ZNSt6vectorIiSaIiEEaSESt16initializer_listIiE, symObjAddr: 0x1390, symBinAddr: 0x100003030, symSize: 0x4C }
  - { offset: 0xC862, size: 0x8, addend: 0x0, symName: __ZNSt6vectorIiSaIiEED1Ev, symObjAddr: 0x1334, symBinAddr: 0x100002FD4, symSize: 0x5C }
  - { offset: 0xC8EA, size: 0x8, addend: 0x0, symName: __ZNSt6vectorIiSaIiEEC1ESt16initializer_listIiERKS0_, symObjAddr: 0x12C4, symBinAddr: 0x100002F64, symSize: 0x70 }
  - { offset: 0xC991, size: 0x8, addend: 0x0, symName: __ZNSt7__cxx1112basic_stringIcSt11char_traitsIcESaIcEEC1IS3_EEPKcRKS3_, symObjAddr: 0x1228, symBinAddr: 0x100002EC8, symSize: 0x9C }
  - { offset: 0xCA13, size: 0x8, addend: 0x0, symName: __ZNSt8_Rb_treeIiSt4pairIKiiESt10_Select1stIS2_ESt4lessIiESaIS2_EED1Ev, symObjAddr: 0x11F4, symBinAddr: 0x100002E94, symSize: 0x34 }
  - { offset: 0xCA6C, size: 0x8, addend: 0x0, symName: __ZNSt8_Rb_treeIiSt4pairIKiiESt10_Select1stIS2_ESt4lessIiESaIS2_EE13_Rb_tree_implIS6_Lb1EEC1Ev, symObjAddr: 0x11B0, symBinAddr: 0x100002E50, symSize: 0x44 }
  - { offset: 0xCAD3, size: 0x8, addend: 0x0, symName: __ZNSt3mapIiiSt4lessIiESaISt4pairIKiiEEEixERS3_, symObjAddr: 0x10C4, symBinAddr: 0x100002D64, symSize: 0xEC }
  - { offset: 0xCB1B, size: 0x8, addend: 0x0, symName: __ZNSt6vectorIiSaIiEEixEm, symObjAddr: 0x109C, symBinAddr: 0x100002D3C, symSize: 0x28 }
  - { offset: 0xCB53, size: 0x8, addend: 0x0, symName: __ZNKSt6vectorIiSaIiEE4sizeEv, symObjAddr: 0x1074, symBinAddr: 0x100002D14, symSize: 0x28 }
  - { offset: 0xCB77, size: 0x8, addend: 0x0, symName: __ZNSt8__detail18__to_chars_10_implIjEEvPcjT_, symObjAddr: 0xEF0, symBinAddr: 0x100002B90, symSize: 0x184 }
  - { offset: 0xCC79, size: 0x8, addend: 0x0, symName: __ZNSt7__cxx1112basic_stringIcSt11char_traitsIcESaIcEEC1IS3_EEmcRKS3_, symObjAddr: 0xE7C, symBinAddr: 0x100002B1C, symSize: 0x74 }
  - { offset: 0xCCDA, size: 0x8, addend: 0x0, symName: __ZNSt7__cxx1112basic_stringIcSt11char_traitsIcESaIcEE12_Alloc_hiderD1Ev, symObjAddr: 0xE50, symBinAddr: 0x100002AF0, symSize: 0x2C }
  - { offset: 0xCD4C, size: 0x8, addend: 0x0, symName: __ZNSt8__detail14__to_chars_lenIjEEjT_i, symObjAddr: 0xD78, symBinAddr: 0x100002A18, symSize: 0xD8 }
  - { offset: 0xCDC7, size: 0x8, addend: 0x0, symName: __ZN9__gnu_cxx11char_traitsIcE6lengthEPKc, symObjAddr: 0xD20, symBinAddr: 0x1000029C0, symSize: 0x58 }
  - { offset: 0xCE05, size: 0x8, addend: 0x0, symName: _main, symObjAddr: 0xA0C, symBinAddr: 0x1000026AC, symSize: 0x314 }
  - { offset: 0xCF80, size: 0x8, addend: 0x0, symName: __Z9printTreeP8TreeNode, symObjAddr: 0x930, symBinAddr: 0x1000025D0, symSize: 0xDC }
  - { offset: 0xD032, size: 0x8, addend: 0x0, symName: __Z15getPrintTreeStrP8TreeNodeNSt7__cxx1112basic_stringIcSt11char_traitsIcESaIcEEEb, symObjAddr: 0x64C, symBinAddr: 0x1000022EC, symSize: 0x2E4 }
  - { offset: 0xD19B, size: 0x8, addend: 0x0, symName: __ZN8Solution9buildTreeERSt6vectorIiSaIiEES3_, symObjAddr: 0x560, symBinAddr: 0x100002200, symSize: 0xEC }
  - { offset: 0xD244, size: 0x8, addend: 0x0, symName: __ZNSt3mapIiiSt4lessIiESaISt4pairIKiiEEED1Ev, symObjAddr: 0x540, symBinAddr: 0x1000021E0, symSize: 0x20 }
  - { offset: 0xD280, size: 0x8, addend: 0x0, symName: __ZNSt3mapIiiSt4lessIiESaISt4pairIKiiEEEC1Ev, symObjAddr: 0x520, symBinAddr: 0x1000021C0, symSize: 0x20 }
  - { offset: 0xD2BC, size: 0x8, addend: 0x0, symName: __ZNSt8_Rb_treeIiSt4pairIKiiESt10_Select1stIS2_ESt4lessIiESaIS2_EEC1Ev, symObjAddr: 0x500, symBinAddr: 0x1000021A0, symSize: 0x20 }
  - { offset: 0xD306, size: 0x8, addend: 0x0, symName: __ZNSt8_Rb_treeIiSt4pairIKiiESt10_Select1stIS2_ESt4lessIiESaIS2_EE13_Rb_tree_implIS6_Lb1EED1Ev, symObjAddr: 0x4D4, symBinAddr: 0x100002174, symSize: 0x2C }
  - { offset: 0xD34C, size: 0x8, addend: 0x0, symName: __ZN8Solution12buildTreeRecERSt6vectorIiSaIiEERiRSt3mapIiiSt4lessIiESaISt4pairIKiiEEEii, symObjAddr: 0x1FC, symBinAddr: 0x100001E9C, symSize: 0x2D8 }
  - { offset: 0xD465, size: 0x8, addend: 0x0, symName: __ZN8Solution8inBoundsEii, symObjAddr: 0x1D0, symBinAddr: 0x100001E70, symSize: 0x2C }
  - { offset: 0xD4CF, size: 0x8, addend: 0x0, symName: __ZN8TreeNodeC1Ei, symObjAddr: 0x19C, symBinAddr: 0x100001E3C, symSize: 0x34 }
  - { offset: 0xD4F7, size: 0x8, addend: 0x0, symName: __ZNSt7__cxx119to_stringEi, symObjAddr: 0xD8, symBinAddr: 0x100001D78, symSize: 0xC4 }
  - { offset: 0xD5C0, size: 0x8, addend: 0x0, symName: __ZNSt11char_traitsIcE6lengthEPKc, symObjAddr: 0x9C, symBinAddr: 0x100001D3C, symSize: 0x3C }
  - { offset: 0xD5EC, size: 0x8, addend: 0x0, symName: __ZNSt15_Rb_tree_header8_M_resetEv, symObjAddr: 0x60, symBinAddr: 0x100001D00, symSize: 0x3C }
  - { offset: 0xD62C, size: 0x8, addend: 0x0, symName: __ZNSt15_Rb_tree_headerC2Ev, symObjAddr: 0x38, symBinAddr: 0x100001CD8, symSize: 0x28 }
  - { offset: 0xD654, size: 0x8, addend: 0x0, symName: __ZdlPvS_, symObjAddr: 0x20, symBinAddr: 0x100001CC0, symSize: 0x18 }
  - { offset: 0xD688, size: 0x8, addend: 0x0, symName: __ZnwmPv, symObjAddr: 0x8, symBinAddr: 0x100001CA8, symSize: 0x18 }
  - { offset: 0xD6B8, size: 0x8, addend: 0x0, symName: __ZSt23__is_constant_evaluatedv, symObjAddr: 0x0, symBinAddr: 0x100001CA0, symSize: 0x8 }
...
